target datalayout = "e-m:e-p270:32:32-p271:32:32-p272:64:64-i64:64-i128:128-f80:128-n8:16:32:64-S128"
target triple = "x86_64-pc-linux-gnu"

@bulk_fsync_objdir = internal global ptr null, align 8
@.str.1 = private unnamed_addr constant [57 x i8] c"core.fsyncMethod = batch is unsupported on this platform\00", align 1
@.str.4 = private unnamed_addr constant [1 x i8] zeroinitializer, align 1
@git_gettext_enabled = external global i32, align 4

; Function Attrs: inlinehint nounwind uwtable
define internal ptr @_(ptr noundef %0) #3 {
  %2 = alloca ptr, align 8
  %3 = alloca ptr, align 8
  store ptr %0, ptr %3, align 8, !tbaa !13
  %4 = load ptr, ptr %3, align 8, !tbaa !13
  %5 = load i8, ptr %4, align 1, !tbaa !15
  %6 = icmp ne i8 %5, 0
  br i1 %6, label %8, label %7

7:                                                ; preds = %1
  store ptr @.str.4, ptr %2, align 8
  br label %16

8:                                                ; preds = %1
  %9 = load i32, ptr @git_gettext_enabled, align 4, !tbaa !4
  %10 = icmp ne i32 %9, 0
  br i1 %10, label %13, label %11

11:                                               ; preds = %8
  %12 = load ptr, ptr %3, align 8, !tbaa !13
  store ptr %12, ptr %2, align 8
  br label %16

13:                                               ; preds = %8
  %14 = load ptr, ptr %3, align 8, !tbaa !13
  %15 = call ptr @dcgettext(ptr noundef null, ptr noundef %14, i32 noundef 5) #11
  store ptr %15, ptr %2, align 8
  br label %16

16:                                               ; preds = %13, %11, %7
  %17 = load ptr, ptr %2, align 8
  ret ptr %17
}

; Function Attrs: nounwind uwtable
define dso_local void @fsync_loose_object_bulk_checkin(i32 noundef %0, ptr noundef %1) #0 {
  %3 = alloca i32, align 4
  %4 = alloca ptr, align 8
  store i32 %0, ptr %3, align 4, !tbaa !4
  store ptr %1, ptr %4, align 8, !tbaa !13
  %5 = load ptr, ptr @bulk_fsync_objdir, align 8, !tbaa !8
  %6 = icmp ne ptr %5, null
  br i1 %6, label %7, label %11

7:                                                ; preds = %2
  %8 = load i32, ptr %3, align 4, !tbaa !4
  %9 = call i32 @git_fsync(i32 noundef %8, i32 noundef 0)
  %10 = icmp slt i32 %9, 0
  br i1 %10, label %11, label %20

11:                                               ; preds = %7, %2
  %12 = call ptr @__errno_location() #10
  %13 = load i32, ptr %12, align 4, !tbaa !4
  %14 = icmp eq i32 %13, 38
  br i1 %14, label %15, label %17

15:                                               ; preds = %11
  %16 = call ptr @_(ptr noundef @.str.1)
  call void (ptr, ...) @warning(ptr noundef %16)
  br label %17

17:                                               ; preds = %15, %11
  %18 = load i32, ptr %3, align 4, !tbaa !4
  %19 = load ptr, ptr %4, align 8, !tbaa !13
  call void @fsync_or_die(i32 noundef %18, ptr noundef %19)
  br label %20

20:                                               ; preds = %17, %7
  ret void
}