; Function Attrs: nounwind uwtable
define dso_local void @fsync_loose_object_bulk_checkin(i32 noundef %0, ptr noundef %1) local_unnamed_addr #0 {
  %3 = load ptr, ptr @bulk_fsync_objdir, align 8, !tbaa !11
  %.not = icmp eq ptr %3, null
  br i1 %.not, label %7, label %4

4:                                                ; preds = %2
  %5 = tail call i32 @git_fsync(i32 noundef %0, i32 noundef 0) #13
  %6 = icmp slt i32 %5, 0
  br i1 %6, label %7, label %16

7:                                                ; preds = %4, %2
  %8 = tail call ptr @__errno_location() #14
  %9 = load i32, ptr %8, align 4, !tbaa !4
  %10 = icmp eq i32 %9, 38
  br i1 %10, label %11, label %15

11:                                               ; preds = %7
  %12 = load i32, ptr @git_gettext_enabled, align 4, !tbaa !4
  %.not.i = icmp eq i32 %12, 0
  br i1 %.not.i, label %_.exit, label %13

13:                                               ; preds = %11
  %14 = tail call ptr @dcgettext(ptr noundef null, ptr noundef nonnull @.str.1, i32 noundef 5) #13
  br label %_.exit

_.exit:                                           ; preds = %11, %13
  %.0.i = phi ptr [ %14, %13 ], [ @.str.1, %11 ]
  tail call void (ptr, ...) @warning(ptr noundef %.0.i) #13
  br label %15

15:                                               ; preds = %_.exit, %7
  tail call void @fsync_or_die(i32 noundef %0, ptr noundef %1) #13
  br label %16

16:                                               ; preds = %15, %4
  ret void
}